target datalayout = "e-m:e-p270:32:32-p271:32:32-p272:64:64-i64:64-i128:128-f80:128-n8:16:32:64-S128"
target triple = "x86_64-pc-linux-gnu"

%"class.std::__cxx11::basic_string" = type { %"struct.std::__cxx11::basic_string<char>::_Alloc_hider", i64, %union.anon }
%"struct.std::__cxx11::basic_string<char>::_Alloc_hider" = type { ptr }
%union.anon = type { i64, [8 x i8] }
%"struct.absl::debugging_internal::SymbolDecoratorArgs" = type { ptr, i64, i32, ptr, i64, ptr, i64, ptr }

; Function Attrs: mustprogress nounwind uwtable
define available_externally noundef ptr @_ZNKSt7__cxx1112basic_stringIcSt11char_traitsIcESaIcEE7_M_dataEv(ptr noundef nonnull align 8 dereferenceable(32) %0) #6 align 2 {
  %2 = alloca ptr, align 8
  store ptr %0, ptr %2, align 8, !tbaa !40
  %3 = load ptr, ptr %2, align 8
  %4 = getelementptr inbounds nuw %"class.std::__cxx11::basic_string", ptr %3, i32 0, i32 0
  %5 = getelementptr inbounds nuw %"struct.std::__cxx11::basic_string<char>::_Alloc_hider", ptr %4, i32 0, i32 0
  %6 = load ptr, ptr %5, align 8, !tbaa !187
  ret ptr %6
}

; Function Attrs: mustprogress nounwind uwtable
define available_externally noundef ptr @_ZNKSt7__cxx1112basic_stringIcSt11char_traitsIcESaIcEE5c_strEv(ptr noundef nonnull align 8 dereferenceable(32) %0) #6 align 2 {
  %2 = alloca ptr, align 8
  store ptr %0, ptr %2, align 8, !tbaa !40
  %3 = load ptr, ptr %2, align 8
  %4 = call noundef ptr @_ZNKSt7__cxx1112basic_stringIcSt11char_traitsIcESaIcEE7_M_dataEv(ptr noundef nonnull align 8 dereferenceable(32) %3)
  ret ptr %4
}

; Function Attrs: mustprogress nounwind uwtable
define internal void @_ZL20DummySymbolDecoratorPKN4absl18debugging_internal19SymbolDecoratorArgsE(ptr noundef %0) #6 {
  %2 = alloca ptr, align 8
  %3 = alloca ptr, align 8
  store ptr %0, ptr %2, align 8, !tbaa !114
  call void @llvm.lifetime.start.p0(i64 8, ptr %3) #3
  %4 = load ptr, ptr %2, align 8, !tbaa !114
  %5 = getelementptr inbounds nuw %"struct.absl::debugging_internal::SymbolDecoratorArgs", ptr %4, i32 0, i32 7
  %6 = load ptr, ptr %5, align 8, !tbaa !116
  store ptr %6, ptr %3, align 8, !tbaa !40
  %7 = load ptr, ptr %2, align 8, !tbaa !114
  %8 = getelementptr inbounds nuw %"struct.absl::debugging_internal::SymbolDecoratorArgs", ptr %7, i32 0, i32 3
  %9 = load ptr, ptr %8, align 8, !tbaa !118
  %10 = load ptr, ptr %3, align 8, !tbaa !40
  %11 = call noundef ptr @_ZNKSt7__cxx1112basic_stringIcSt11char_traitsIcESaIcEE5c_strEv(ptr noundef nonnull align 8 dereferenceable(32) %10) #3
  %12 = load ptr, ptr %2, align 8, !tbaa !114
  %13 = getelementptr inbounds nuw %"struct.absl::debugging_internal::SymbolDecoratorArgs", ptr %12, i32 0, i32 4
  %14 = load i64, ptr %13, align 8, !tbaa !119
  %15 = load ptr, ptr %2, align 8, !tbaa !114
  %16 = getelementptr inbounds nuw %"struct.absl::debugging_internal::SymbolDecoratorArgs", ptr %15, i32 0, i32 3
  %17 = load ptr, ptr %16, align 8, !tbaa !118
  %18 = call i64 @strlen(ptr noundef %17) #31
  %19 = sub i64 %14, %18
  %20 = sub i64 %19, 1
  %21 = call ptr @strncat(ptr noundef %9, ptr noundef %11, i64 noundef %20) #3
  call void @llvm.lifetime.end.p0(i64 8, ptr %3) #3
  ret void
}