; Function Attrs: mustprogress nofree nounwind willreturn memory(readwrite, inaccessiblemem: none) uwtable
define internal void @_ZL20DummySymbolDecoratorPKN4absl18debugging_internal19SymbolDecoratorArgsE(ptr noundef readonly captures(none) %0) #17 {
  %2 = getelementptr inbounds nuw i8, ptr %0, i64 56
  %3 = load ptr, ptr %2, align 8, !tbaa !94
  %4 = getelementptr inbounds nuw i8, ptr %0, i64 24
  %5 = load ptr, ptr %4, align 8, !tbaa !96
  %6 = load ptr, ptr %3, align 8, !tbaa !30
  %7 = getelementptr inbounds nuw i8, ptr %0, i64 32
  %8 = load i64, ptr %7, align 8, !tbaa !97
  %9 = tail call i64 @strlen(ptr noundef nonnull dereferenceable(1) %5) #37
  %10 = xor i64 %9, -1
  %11 = add i64 %8, %10
  %12 = tail call ptr @strncat(ptr noundef nonnull dereferenceable(1) %5, ptr noundef %6, i64 noundef %11) #35
  ret void
}